target datalayout = "e-m:e-p270:32:32-p271:32:32-p272:64:64-i64:64-i128:128-f80:128-n8:16:32:64-S128"
target triple = "x86_64-pc-linux-gnu"

%struct.Mpeg4DecContext = type { %struct.MpegEncContext, i32, i32, i32, i32, i32, i32, i32, i32, i32, [2 x [2 x i32]], [2 x [2 x i32]], [4 x [2 x i16]], [2 x i32], i32, i32, i32, i32, i32, i32, i32, i32, i32, i32, i32, i32, ptr, i32, i32, i32, i32, i32, i32, i32, %struct.Mpeg4VideoDSPContext, ptr, ptr, [12 x [64 x i32]], i32, [3 x [256 x i16]] }
%struct.MpegEncContext = type { ptr, i32, i32, i32, [12 x i32], i32, %struct.ScanTable, %struct.ScanTable, [64 x i8], [64 x i8], ptr, ptr, i32, i32, i32, i32, i32, i32, i32, i32, i32, i32, i32, i32, i32, i32, i32, i32, i32, i32, i32, i32, i64, i64, ptr, %struct.BufferPoolContext, i32, i32, %union.anon, i32, %struct.MPVWorkPicture, %struct.MPVWorkPicture, %struct.MPVWorkPicture, i32, [3 x i32], ptr, [3 x ptr], ptr, ptr, ptr, ptr, ptr, ptr, [3 x ptr], i32, ptr, ptr, ptr, ptr, %struct.ScratchpadContext, i32, i32, i32, i32, i32, i32, %struct.BlockDSPContext, %struct.H264ChromaContext, %struct.HpelDSPContext, %struct.IDCTDSPContext, %struct.QpelDSPContext, %struct.VideoDSPContext, %struct.H263DSPContext, ptr, [2 x [2 x ptr]], i32, i32, [2 x [4 x [2 x i32]]], [2 x [2 x i32]], [2 x [2 x [2 x i32]]], [2 x [64 x i16]], i32, i32, i32, i32, i32, [6 x i32], [6 x i32], [3 x ptr], ptr, [64 x i16], [64 x i16], [64 x i16], [64 x i16], i32, i32, %struct.GetBitContext, i32, i32, i32, i32, i32, i32, i32, i32, i32, i32, i32, i32, i32, i32, i32, i64, i64, i16, i16, i16, i16, i32, i32, i32, i32, i32, i32, i32, i32, i32, [3 x i32], i32, i32, i32, i32, i32, i32, %struct.GetBitContext, i32, [2 x [2 x i32]], i32, i32, i32, i32, i32, i32, i32, i32, i32, i32, i32, i32, i32, i32, [2 x i32], i32, i32, ptr, ptr, ptr, ptr, ptr, i32, i32, %struct.ERContext }
%struct.ScanTable = type { ptr, [64 x i8], [64 x i8] }
%struct.BufferPoolContext = type { ptr, ptr, ptr, ptr, ptr, i32, i32, i32 }
%union.anon = type { [32 x ptr] }
%struct.MPVWorkPicture = type { [3 x ptr], [3 x i64], ptr, ptr, [2 x ptr], ptr, ptr, [2 x ptr], i32 }
%struct.ScratchpadContext = type { ptr, ptr, %union.anon.0, i32 }
%union.anon.0 = type { ptr }
%struct.BlockDSPContext = type { ptr, ptr, [2 x ptr] }
%struct.H264ChromaContext = type { [4 x ptr], [4 x ptr] }
%struct.HpelDSPContext = type { [4 x [4 x ptr]], [4 x [4 x ptr]], [4 x [4 x ptr]], [4 x ptr] }
%struct.IDCTDSPContext = type { ptr, ptr, ptr, ptr, ptr, ptr, [64 x i8], i32, i32 }
%struct.QpelDSPContext = type { [2 x [16 x ptr]], [2 x [16 x ptr]], [2 x [16 x ptr]] }
%struct.VideoDSPContext = type { ptr, ptr }
%struct.H263DSPContext = type { ptr, ptr }
%struct.GetBitContext = type { ptr, ptr, i32, i32, i32 }
%struct.ERContext = type { ptr, ptr, i32, ptr, i32, i32, i32, i64, i64, i32, i32, ptr, ptr, [3 x ptr], ptr, ptr, [2 x [4 x [2 x i32]]], %struct.ERPicture, %struct.ERPicture, %struct.ERPicture, [2 x ptr], [2 x ptr], i16, i16, i32, i32, ptr, ptr }
%struct.ERPicture = type { ptr, ptr, ptr, [2 x ptr], [2 x ptr], ptr, i32 }
%struct.Mpeg4VideoDSPContext = type { ptr, ptr }

; Function Attrs: inlinehint nounwind uwtable
define internal i32 @get_amv(ptr noundef %0, i32 noundef %1) #3 {
  %3 = alloca ptr, align 8
  %4 = alloca i32, align 4
  %5 = alloca ptr, align 8
  %6 = alloca i32, align 4
  %7 = alloca i32, align 4
  %8 = alloca i32, align 4
  %9 = alloca i32, align 4
  %10 = alloca i32, align 4
  %11 = alloca i32, align 4
  %12 = alloca i32, align 4
  %13 = alloca i32, align 4
  %14 = alloca i32, align 4
  %15 = alloca i32, align 4
  store ptr %0, ptr %3, align 8, !tbaa !14
  store i32 %1, ptr %4, align 4, !tbaa !47
  call void @llvm.lifetime.start.p0(i64 8, ptr %5) #13
  %16 = load ptr, ptr %3, align 8, !tbaa !14
  %17 = getelementptr inbounds nuw %struct.Mpeg4DecContext, ptr %16, i32 0, i32 0
  store ptr %17, ptr %5, align 8, !tbaa !4
  call void @llvm.lifetime.start.p0(i64 4, ptr %6) #13
  call void @llvm.lifetime.start.p0(i64 4, ptr %7) #13
  call void @llvm.lifetime.start.p0(i64 4, ptr %8) #13
  call void @llvm.lifetime.start.p0(i64 4, ptr %9) #13
  call void @llvm.lifetime.start.p0(i64 4, ptr %10) #13
  call void @llvm.lifetime.start.p0(i64 4, ptr %11) #13
  call void @llvm.lifetime.start.p0(i64 4, ptr %12) #13
  call void @llvm.lifetime.start.p0(i64 4, ptr %13) #13
  %18 = load ptr, ptr %3, align 8, !tbaa !14
  %19 = getelementptr inbounds nuw %struct.Mpeg4DecContext, ptr %18, i32 0, i32 1
  %20 = load i32, ptr %19, align 8, !tbaa !106
  %21 = add nsw i32 %20, 4
  %22 = shl i32 1, %21
  store i32 %22, ptr %13, align 4, !tbaa !47
  call void @llvm.lifetime.start.p0(i64 4, ptr %14) #13
  %23 = load ptr, ptr %3, align 8, !tbaa !14
  %24 = getelementptr inbounds nuw %struct.Mpeg4DecContext, ptr %23, i32 0, i32 7
  %25 = load i32, ptr %24, align 8, !tbaa !49
  store i32 %25, ptr %14, align 4, !tbaa !47
  %26 = load ptr, ptr %5, align 8, !tbaa !4
  %27 = getelementptr inbounds nuw %struct.MpegEncContext, ptr %26, i32 0, i32 21
  %28 = load i32, ptr %27, align 4, !tbaa !166
  %29 = and i32 %28, 32
  %30 = icmp ne i32 %29, 0
  br i1 %30, label %31, label %37

31:                                               ; preds = %2
  %32 = load ptr, ptr %5, align 8, !tbaa !4
  %33 = getelementptr inbounds nuw %struct.MpegEncContext, ptr %32, i32 0, i32 119
  %34 = load i32, ptr %33, align 4, !tbaa !193
  %35 = load i32, ptr %13, align 4, !tbaa !47
  %36 = ashr i32 %35, %34
  store i32 %36, ptr %13, align 4, !tbaa !47
  br label %37

37:                                               ; preds = %31, %2
  %38 = load ptr, ptr %3, align 8, !tbaa !14
  %39 = getelementptr inbounds nuw %struct.Mpeg4DecContext, ptr %38, i32 0, i32 9
  %40 = load i32, ptr %39, align 8, !tbaa !16
  %41 = icmp eq i32 %40, 1
  br i1 %41, label %42, label %129

42:                                               ; preds = %37
  %43 = load ptr, ptr %3, align 8, !tbaa !14
  %44 = getelementptr inbounds nuw %struct.Mpeg4DecContext, ptr %43, i32 0, i32 22
  %45 = load i32, ptr %44, align 4, !tbaa !122
  %46 = icmp eq i32 %45, 500
  br i1 %46, label %47, label %73

47:                                               ; preds = %42
  %48 = load ptr, ptr %3, align 8, !tbaa !14
  %49 = getelementptr inbounds nuw %struct.Mpeg4DecContext, ptr %48, i32 0, i32 23
  %50 = load i32, ptr %49, align 8, !tbaa !123
  %51 = icmp eq i32 %50, 413
  br i1 %51, label %52, label %73

52:                                               ; preds = %47
  %53 = load i32, ptr %14, align 4, !tbaa !47
  %54 = load ptr, ptr %5, align 8, !tbaa !4
  %55 = getelementptr inbounds nuw %struct.MpegEncContext, ptr %54, i32 0, i32 119
  %56 = load i32, ptr %55, align 4, !tbaa !193
  %57 = icmp sge i32 %53, %56
  br i1 %57, label %58, label %73

58:                                               ; preds = %52
  %59 = load ptr, ptr %3, align 8, !tbaa !14
  %60 = getelementptr inbounds nuw %struct.Mpeg4DecContext, ptr %59, i32 0, i32 10
  %61 = getelementptr inbounds [2 x [2 x i32]], ptr %60, i64 0, i64 0
  %62 = load i32, ptr %4, align 4, !tbaa !47
  %63 = sext i32 %62 to i64
  %64 = getelementptr inbounds [2 x i32], ptr %61, i64 0, i64 %63
  %65 = load i32, ptr %64, align 4, !tbaa !47
  %66 = load i32, ptr %14, align 4, !tbaa !47
  %67 = load ptr, ptr %5, align 8, !tbaa !4
  %68 = getelementptr inbounds nuw %struct.MpegEncContext, ptr %67, i32 0, i32 119
  %69 = load i32, ptr %68, align 4, !tbaa !193
  %70 = sub nsw i32 %66, %69
  %71 = shl i32 1, %70
  %72 = sdiv i32 %65, %71
  store i32 %72, ptr %9, align 4, !tbaa !47
  br label %128

73:                                               ; preds = %52, %47, %42
  %74 = load ptr, ptr %3, align 8, !tbaa !14
  %75 = getelementptr inbounds nuw %struct.Mpeg4DecContext, ptr %74, i32 0, i32 10
  %76 = getelementptr inbounds [2 x [2 x i32]], ptr %75, i64 0, i64 0
  %77 = load i32, ptr %4, align 4, !tbaa !47
  %78 = sext i32 %77 to i64
  %79 = getelementptr inbounds [2 x i32], ptr %76, i64 0, i64 %78
  %80 = load i32, ptr %79, align 4, !tbaa !47
  %81 = load ptr, ptr %5, align 8, !tbaa !4
  %82 = getelementptr inbounds nuw %struct.MpegEncContext, ptr %81, i32 0, i32 119
  %83 = load i32, ptr %82, align 4, !tbaa !193
  %84 = shl i32 1, %83
  %85 = mul nsw i32 %80, %84
  %86 = icmp sgt i32 %85, 0
  br i1 %86, label %87, label %106

87:                                               ; preds = %73
  %88 = load ptr, ptr %3, align 8, !tbaa !14
  %89 = getelementptr inbounds nuw %struct.Mpeg4DecContext, ptr %88, i32 0, i32 10
  %90 = getelementptr inbounds [2 x [2 x i32]], ptr %89, i64 0, i64 0
  %91 = load i32, ptr %4, align 4, !tbaa !47
  %92 = sext i32 %91 to i64
  %93 = getelementptr inbounds [2 x i32], ptr %90, i64 0, i64 %92
  %94 = load i32, ptr %93, align 4, !tbaa !47
  %95 = load ptr, ptr %5, align 8, !tbaa !4
  %96 = getelementptr inbounds nuw %struct.MpegEncContext, ptr %95, i32 0, i32 119
  %97 = load i32, ptr %96, align 4, !tbaa !193
  %98 = shl i32 1, %97
  %99 = mul nsw i32 %94, %98
  %100 = load i32, ptr %14, align 4, !tbaa !47
  %101 = shl i32 1, %100
  %102 = ashr i32 %101, 1
  %103 = add nsw i32 %99, %102
  %104 = load i32, ptr %14, align 4, !tbaa !47
  %105 = ashr i32 %103, %104
  br label %126

106:                                              ; preds = %73
  %107 = load ptr, ptr %3, align 8, !tbaa !14
  %108 = getelementptr inbounds nuw %struct.Mpeg4DecContext, ptr %107, i32 0, i32 10
  %109 = getelementptr inbounds [2 x [2 x i32]], ptr %108, i64 0, i64 0
  %110 = load i32, ptr %4, align 4, !tbaa !47
  %111 = sext i32 %110 to i64
  %112 = getelementptr inbounds [2 x i32], ptr %109, i64 0, i64 %111
  %113 = load i32, ptr %112, align 4, !tbaa !47
  %114 = load ptr, ptr %5, align 8, !tbaa !4
  %115 = getelementptr inbounds nuw %struct.MpegEncContext, ptr %114, i32 0, i32 119
  %116 = load i32, ptr %115, align 4, !tbaa !193
  %117 = shl i32 1, %116
  %118 = mul nsw i32 %113, %117
  %119 = load i32, ptr %14, align 4, !tbaa !47
  %120 = shl i32 1, %119
  %121 = ashr i32 %120, 1
  %122 = add nsw i32 %118, %121
  %123 = sub nsw i32 %122, 1
  %124 = load i32, ptr %14, align 4, !tbaa !47
  %125 = ashr i32 %123, %124
  br label %126

126:                                              ; preds = %106, %87
  %127 = phi i32 [ %105, %87 ], [ %125, %106 ]
  store i32 %127, ptr %9, align 4, !tbaa !47
  br label %128

128:                                              ; preds = %126, %58
  br label %258

129:                                              ; preds = %37
  %130 = load ptr, ptr %3, align 8, !tbaa !14
  %131 = getelementptr inbounds nuw %struct.Mpeg4DecContext, ptr %130, i32 0, i32 11
  %132 = load i32, ptr %4, align 4, !tbaa !47
  %133 = sext i32 %132 to i64
  %134 = getelementptr inbounds [2 x [2 x i32]], ptr %131, i64 0, i64 %133
  %135 = getelementptr inbounds [2 x i32], ptr %134, i64 0, i64 0
  %136 = load i32, ptr %135, align 4, !tbaa !47
  store i32 %136, ptr %10, align 4, !tbaa !47
  %137 = load ptr, ptr %3, align 8, !tbaa !14
  %138 = getelementptr inbounds nuw %struct.Mpeg4DecContext, ptr %137, i32 0, i32 11
  %139 = load i32, ptr %4, align 4, !tbaa !47
  %140 = sext i32 %139 to i64
  %141 = getelementptr inbounds [2 x [2 x i32]], ptr %138, i64 0, i64 %140
  %142 = getelementptr inbounds [2 x i32], ptr %141, i64 0, i64 1
  %143 = load i32, ptr %142, align 4, !tbaa !47
  store i32 %143, ptr %11, align 4, !tbaa !47
  %144 = load ptr, ptr %3, align 8, !tbaa !14
  %145 = getelementptr inbounds nuw %struct.Mpeg4DecContext, ptr %144, i32 0, i32 13
  %146 = getelementptr inbounds [2 x i32], ptr %145, i64 0, i64 0
  %147 = load i32, ptr %146, align 4, !tbaa !47
  store i32 %147, ptr %12, align 4, !tbaa !47
  %148 = load i32, ptr %4, align 4, !tbaa !47
  %149 = icmp ne i32 %148, 0
  br i1 %149, label %150, label %158

150:                                              ; preds = %129
  %151 = load i32, ptr %12, align 4, !tbaa !47
  %152 = load i32, ptr %14, align 4, !tbaa !47
  %153 = add nsw i32 %151, %152
  %154 = add nsw i32 %153, 1
  %155 = shl i32 1, %154
  %156 = load i32, ptr %11, align 4, !tbaa !47
  %157 = sub nsw i32 %156, %155
  store i32 %157, ptr %11, align 4, !tbaa !47
  br label %166

158:                                              ; preds = %129
  %159 = load i32, ptr %12, align 4, !tbaa !47
  %160 = load i32, ptr %14, align 4, !tbaa !47
  %161 = add nsw i32 %159, %160
  %162 = add nsw i32 %161, 1
  %163 = shl i32 1, %162
  %164 = load i32, ptr %10, align 4, !tbaa !47
  %165 = sub nsw i32 %164, %163
  store i32 %165, ptr %10, align 4, !tbaa !47
  br label %166

166:                                              ; preds = %158, %150
  %167 = load ptr, ptr %3, align 8, !tbaa !14
  %168 = getelementptr inbounds nuw %struct.Mpeg4DecContext, ptr %167, i32 0, i32 10
  %169 = getelementptr inbounds [2 x [2 x i32]], ptr %168, i64 0, i64 0
  %170 = load i32, ptr %4, align 4, !tbaa !47
  %171 = sext i32 %170 to i64
  %172 = getelementptr inbounds [2 x i32], ptr %169, i64 0, i64 %171
  %173 = load i32, ptr %172, align 4, !tbaa !47
  %174 = load i32, ptr %10, align 4, !tbaa !47
  %175 = load ptr, ptr %5, align 8, !tbaa !4
  %176 = getelementptr inbounds nuw %struct.MpegEncContext, ptr %175, i32 0, i32 82
  %177 = load i32, ptr %176, align 4, !tbaa !48
  %178 = mul nsw i32 %174, %177
  %179 = mul i32 %178, 16
  %180 = add i32 %173, %179
  %181 = load i32, ptr %11, align 4, !tbaa !47
  %182 = load ptr, ptr %5, align 8, !tbaa !4
  %183 = getelementptr inbounds nuw %struct.MpegEncContext, ptr %182, i32 0, i32 83
  %184 = load i32, ptr %183, align 8, !tbaa !50
  %185 = mul nsw i32 %181, %184
  %186 = mul i32 %185, 16
  %187 = add i32 %180, %186
  store i32 %187, ptr %8, align 4, !tbaa !47
  store i32 0, ptr %9, align 4, !tbaa !47
  store i32 0, ptr %7, align 4, !tbaa !47
  br label %188

188:                                              ; preds = %213, %166
  %189 = load i32, ptr %7, align 4, !tbaa !47
  %190 = icmp slt i32 %189, 16
  br i1 %190, label %191, label %216

191:                                              ; preds = %188
  call void @llvm.lifetime.start.p0(i64 4, ptr %15) #13
  %192 = load i32, ptr %8, align 4, !tbaa !47
  %193 = load i32, ptr %11, align 4, !tbaa !47
  %194 = load i32, ptr %7, align 4, !tbaa !47
  %195 = mul i32 %193, %194
  %196 = add i32 %192, %195
  store i32 %196, ptr %15, align 4, !tbaa !47
  store i32 0, ptr %6, align 4, !tbaa !47
  br label %197

197:                                              ; preds = %209, %191
  %198 = load i32, ptr %6, align 4, !tbaa !47
  %199 = icmp slt i32 %198, 16
  br i1 %199, label %200, label %212

200:                                              ; preds = %197
  %201 = load i32, ptr %15, align 4, !tbaa !47
  %202 = load i32, ptr %12, align 4, !tbaa !47
  %203 = ashr i32 %201, %202
  %204 = load i32, ptr %9, align 4, !tbaa !47
  %205 = add nsw i32 %204, %203
  store i32 %205, ptr %9, align 4, !tbaa !47
  %206 = load i32, ptr %10, align 4, !tbaa !47
  %207 = load i32, ptr %15, align 4, !tbaa !47
  %208 = add nsw i32 %207, %206
  store i32 %208, ptr %15, align 4, !tbaa !47
  br label %209

209:                                              ; preds = %200
  %210 = load i32, ptr %6, align 4, !tbaa !47
  %211 = add nsw i32 %210, 1
  store i32 %211, ptr %6, align 4, !tbaa !47
  br label %197, !llvm.loop !268

212:                                              ; preds = %197
  call void @llvm.lifetime.end.p0(i64 4, ptr %15) #13
  br label %213

213:                                              ; preds = %212
  %214 = load i32, ptr %7, align 4, !tbaa !47
  %215 = add nsw i32 %214, 1
  store i32 %215, ptr %7, align 4, !tbaa !47
  br label %188, !llvm.loop !269

216:                                              ; preds = %188
  %217 = load i32, ptr %9, align 4, !tbaa !47
  %218 = icmp sgt i32 %217, 0
  br i1 %218, label %219, label %237

219:                                              ; preds = %216
  %220 = load i32, ptr %9, align 4, !tbaa !47
  %221 = load i32, ptr %14, align 4, !tbaa !47
  %222 = add nsw i32 %221, 8
  %223 = load ptr, ptr %5, align 8, !tbaa !4
  %224 = getelementptr inbounds nuw %struct.MpegEncContext, ptr %223, i32 0, i32 119
  %225 = load i32, ptr %224, align 4, !tbaa !193
  %226 = sub nsw i32 %222, %225
  %227 = shl i32 1, %226
  %228 = ashr i32 %227, 1
  %229 = add nsw i32 %220, %228
  %230 = load i32, ptr %14, align 4, !tbaa !47
  %231 = add nsw i32 %230, 8
  %232 = load ptr, ptr %5, align 8, !tbaa !4
  %233 = getelementptr inbounds nuw %struct.MpegEncContext, ptr %232, i32 0, i32 119
  %234 = load i32, ptr %233, align 4, !tbaa !193
  %235 = sub nsw i32 %231, %234
  %236 = ashr i32 %229, %235
  br label %256

237:                                              ; preds = %216
  %238 = load i32, ptr %9, align 4, !tbaa !47
  %239 = load i32, ptr %14, align 4, !tbaa !47
  %240 = add nsw i32 %239, 8
  %241 = load ptr, ptr %5, align 8, !tbaa !4
  %242 = getelementptr inbounds nuw %struct.MpegEncContext, ptr %241, i32 0, i32 119
  %243 = load i32, ptr %242, align 4, !tbaa !193
  %244 = sub nsw i32 %240, %243
  %245 = shl i32 1, %244
  %246 = ashr i32 %245, 1
  %247 = add nsw i32 %238, %246
  %248 = sub nsw i32 %247, 1
  %249 = load i32, ptr %14, align 4, !tbaa !47
  %250 = add nsw i32 %249, 8
  %251 = load ptr, ptr %5, align 8, !tbaa !4
  %252 = getelementptr inbounds nuw %struct.MpegEncContext, ptr %251, i32 0, i32 119
  %253 = load i32, ptr %252, align 4, !tbaa !193
  %254 = sub nsw i32 %250, %253
  %255 = ashr i32 %248, %254
  br label %256

256:                                              ; preds = %237, %219
  %257 = phi i32 [ %236, %219 ], [ %255, %237 ]
  store i32 %257, ptr %9, align 4, !tbaa !47
  br label %258

258:                                              ; preds = %256, %128
  %259 = load i32, ptr %9, align 4, !tbaa !47
  %260 = load i32, ptr %13, align 4, !tbaa !47
  %261 = sub nsw i32 0, %260
  %262 = icmp slt i32 %259, %261
  br i1 %262, label %263, label %266

263:                                              ; preds = %258
  %264 = load i32, ptr %13, align 4, !tbaa !47
  %265 = sub nsw i32 0, %264
  store i32 %265, ptr %9, align 4, !tbaa !47
  br label %274

266:                                              ; preds = %258
  %267 = load i32, ptr %9, align 4, !tbaa !47
  %268 = load i32, ptr %13, align 4, !tbaa !47
  %269 = icmp sge i32 %267, %268
  br i1 %269, label %270, label %273

270:                                              ; preds = %266
  %271 = load i32, ptr %13, align 4, !tbaa !47
  %272 = sub nsw i32 %271, 1
  store i32 %272, ptr %9, align 4, !tbaa !47
  br label %273

273:                                              ; preds = %270, %266
  br label %274

274:                                              ; preds = %273, %263
  %275 = load i32, ptr %9, align 4, !tbaa !47
  call void @llvm.lifetime.end.p0(i64 4, ptr %14) #13
  call void @llvm.lifetime.end.p0(i64 4, ptr %13) #13
  call void @llvm.lifetime.end.p0(i64 4, ptr %12) #13
  call void @llvm.lifetime.end.p0(i64 4, ptr %11) #13
  call void @llvm.lifetime.end.p0(i64 4, ptr %10) #13
  call void @llvm.lifetime.end.p0(i64 4, ptr %9) #13
  call void @llvm.lifetime.end.p0(i64 4, ptr %8) #13
  call void @llvm.lifetime.end.p0(i64 4, ptr %7) #13
  call void @llvm.lifetime.end.p0(i64 4, ptr %6) #13
  call void @llvm.lifetime.end.p0(i64 8, ptr %5) #13
  ret i32 %275
}