; Function Attrs: inlinehint nofree norecurse nosync nounwind memory(argmem: read) uwtable
define internal fastcc i32 @get_amv(ptr noundef readonly captures(none) %0, i32 noundef range(i32 0, 2) %1) unnamed_addr #11 {
  %3 = getelementptr inbounds nuw i8, ptr %0, i64 4808
  %4 = load i32, ptr %3, align 8, !tbaa !101
  %5 = add nsw i32 %4, 4
  %6 = shl nuw i32 1, %5
  %7 = getelementptr inbounds nuw i8, ptr %0, i64 4832
  %8 = load i32, ptr %7, align 8, !tbaa !41
  %9 = getelementptr inbounds nuw i8, ptr %0, i64 524
  %10 = load i32, ptr %9, align 4, !tbaa !156
  %11 = and i32 %10, 32
  %.not = icmp eq i32 %11, 0
  br i1 %.not, label %16, label %12

12:                                               ; preds = %2
  %13 = getelementptr inbounds nuw i8, ptr %0, i64 4092
  %14 = load i32, ptr %13, align 4, !tbaa !186
  %15 = ashr i32 %6, %14
  br label %16

16:                                               ; preds = %12, %2
  %.076 = phi i32 [ %15, %12 ], [ %6, %2 ]
  %17 = getelementptr inbounds nuw i8, ptr %0, i64 4840
  %18 = load i32, ptr %17, align 8, !tbaa !4
  %19 = icmp eq i32 %18, 1
  br i1 %19, label %20, label %52

20:                                               ; preds = %16
  %21 = getelementptr inbounds nuw i8, ptr %0, i64 4932
  %22 = load i32, ptr %21, align 4, !tbaa !113
  %23 = icmp eq i32 %22, 500
  br i1 %23, label %24, label %39

24:                                               ; preds = %20
  %25 = getelementptr inbounds nuw i8, ptr %0, i64 4936
  %26 = load i32, ptr %25, align 8, !tbaa !114
  %27 = icmp eq i32 %26, 413
  br i1 %27, label %28, label %39

28:                                               ; preds = %24
  %29 = getelementptr inbounds nuw i8, ptr %0, i64 4092
  %30 = load i32, ptr %29, align 4, !tbaa !186
  %.not88 = icmp slt i32 %8, %30
  br i1 %.not88, label %39, label %31

31:                                               ; preds = %28
  %32 = getelementptr inbounds nuw i8, ptr %0, i64 4844
  %33 = zext nneg i32 %1 to i64
  %34 = getelementptr inbounds nuw [2 x i32], ptr %32, i64 0, i64 %33
  %35 = load i32, ptr %34, align 4, !tbaa !39
  %36 = sub nsw i32 %8, %30
  %37 = shl nuw i32 1, %36
  %38 = sdiv i32 %35, %37
  br label %102

39:                                               ; preds = %28, %24, %20
  %40 = getelementptr inbounds nuw i8, ptr %0, i64 4844
  %41 = zext nneg i32 %1 to i64
  %42 = getelementptr inbounds nuw [2 x i32], ptr %40, i64 0, i64 %41
  %43 = load i32, ptr %42, align 4, !tbaa !39
  %44 = getelementptr inbounds nuw i8, ptr %0, i64 4092
  %45 = load i32, ptr %44, align 4, !tbaa !186
  %46 = shl i32 %43, %45
  %47 = icmp slt i32 %46, 1
  %48 = shl nuw i32 1, %8
  %49 = ashr i32 %48, 1
  %50 = sext i1 %47 to i32
  %.pn.v = add nsw i32 %49, %50
  %.pn = add i32 %46, %.pn.v
  %51 = ashr i32 %.pn, %8
  br label %102

52:                                               ; preds = %16
  %53 = getelementptr inbounds nuw i8, ptr %0, i64 4860
  %54 = zext nneg i32 %1 to i64
  %55 = getelementptr inbounds nuw [2 x [2 x i32]], ptr %53, i64 0, i64 %54
  %56 = load i32, ptr %55, align 4, !tbaa !39
  %57 = getelementptr inbounds nuw i8, ptr %55, i64 4
  %58 = load i32, ptr %57, align 4, !tbaa !39
  %59 = getelementptr inbounds nuw i8, ptr %0, i64 4892
  %60 = load i32, ptr %59, align 4, !tbaa !39
  %.not86 = icmp eq i32 %1, 0
  %61 = add i32 %8, 1
  %62 = add i32 %61, %60
  %.neg = shl nsw i32 -1, %62
  %63 = select i1 %.not86, i32 %.neg, i32 0
  %.079 = add i32 %56, %63
  %64 = select i1 %.not86, i32 0, i32 %.neg
  %.078 = add i32 %58, %64
  %65 = getelementptr inbounds nuw i8, ptr %0, i64 4844
  %66 = getelementptr inbounds nuw [2 x i32], ptr %65, i64 0, i64 %54
  %67 = load i32, ptr %66, align 4, !tbaa !39
  %68 = getelementptr inbounds nuw i8, ptr %0, i64 3348
  %69 = load i32, ptr %68, align 4, !tbaa !40
  %70 = mul nsw i32 %69, %.079
  %71 = getelementptr inbounds nuw i8, ptr %0, i64 3352
  %72 = load i32, ptr %71, align 8, !tbaa !42
  %73 = mul nsw i32 %72, %.078
  %74 = add i32 %73, %70
  %75 = shl i32 %74, 4
  %76 = add i32 %75, %67
  br label %77

77:                                               ; preds = %52, %85
  %.07796 = phi i32 [ 0, %52 ], [ %86, %85 ]
  %.195 = phi i32 [ 0, %52 ], [ %82, %85 ]
  %78 = mul i32 %.07796, %.078
  %79 = add i32 %76, %78
  br label %80

80:                                               ; preds = %77, %80
  %.094 = phi i32 [ %79, %77 ], [ %83, %80 ]
  %.07593 = phi i32 [ 0, %77 ], [ %84, %80 ]
  %.292 = phi i32 [ %.195, %77 ], [ %82, %80 ]
  %81 = ashr i32 %.094, %60
  %82 = add nsw i32 %81, %.292
  %83 = add nsw i32 %.094, %.079
  %84 = add nuw nsw i32 %.07593, 1
  %exitcond.not = icmp eq i32 %84, 16
  br i1 %exitcond.not, label %85, label %80, !llvm.loop !261

85:                                               ; preds = %80
  %86 = add nuw nsw i32 %.07796, 1
  %exitcond97.not = icmp eq i32 %86, 16
  br i1 %exitcond97.not, label %87, label %77, !llvm.loop !262

87:                                               ; preds = %85
  %88 = icmp sgt i32 %82, 0
  %89 = add nsw i32 %8, 8
  %90 = getelementptr inbounds nuw i8, ptr %0, i64 4092
  %91 = load i32, ptr %90, align 4, !tbaa !186
  %92 = sub i32 %89, %91
  %93 = shl nuw i32 1, %92
  %94 = ashr i32 %93, 1
  br i1 %88, label %95, label %98

95:                                               ; preds = %87
  %96 = add nsw i32 %94, %82
  %97 = ashr i32 %96, %92
  br label %102

98:                                               ; preds = %87
  %99 = add i32 %82, -1
  %100 = add i32 %99, %94
  %101 = ashr i32 %100, %92
  br label %102

102:                                              ; preds = %95, %98, %31, %39
  %.080 = phi i32 [ %38, %31 ], [ %51, %39 ], [ %97, %95 ], [ %101, %98 ]
  %103 = sub nsw i32 0, %.076
  %104 = icmp slt i32 %.080, %103
  %.not89 = icmp slt i32 %.080, %.076
  %105 = add nsw i32 %.076, -1
  %spec.select = select i1 %.not89, i32 %.080, i32 %105
  %.3 = select i1 %104, i32 %103, i32 %spec.select
  ret i32 %.3
}